; Function Attrs: nounwind uwtable
define void @ossl_quic_port_raise_net_error(ptr noundef captures(none) %0, ptr noundef %1) local_unnamed_addr #0 {
  %3 = getelementptr inbounds nuw i8, ptr %0, i64 154
  %4 = load i16, ptr %3, align 2
  %5 = and i16 %4, 1
  %.not.not = icmp eq i16 %5, 0
  br i1 %.not.not, label %6, label %.loopexit

6:                                                ; preds = %2
  tail call void @ERR_new() #11
  tail call void @ERR_set_debug(ptr noundef nonnull @.str, i32 noundef 1596, ptr noundef nonnull @__func__.ossl_quic_port_raise_net_error) #11
  tail call void (i32, i32, ptr, ...) @ERR_set_error(i32 noundef 20, i32 noundef 387, ptr noundef nonnull @.str.1) #11
  %7 = getelementptr inbounds nuw i8, ptr %0, i64 144
  %8 = load ptr, ptr %7, align 8, !tbaa !33
  tail call void @OSSL_ERR_STATE_save(ptr noundef %8) #11
  %9 = load i16, ptr %3, align 2
  %10 = and i16 %9, 1
  %.not.i = icmp eq i16 %10, 0
  br i1 %.not.i, label %11, label %port_transition_failed.exit

11:                                               ; preds = %6
  %12 = or disjoint i16 %9, 1
  store i16 %12, ptr %3, align 2
  br label %port_transition_failed.exit

port_transition_failed.exit:                      ; preds = %6, %11
  %.not12 = icmp eq ptr %1, null
  br i1 %.not12, label %14, label %13

13:                                               ; preds = %port_transition_failed.exit
  tail call void @ossl_quic_channel_raise_net_error(ptr noundef nonnull %1) #11
  br label %14

14:                                               ; preds = %13, %port_transition_failed.exit
  %15 = getelementptr inbounds nuw i8, ptr %0, i64 72
  %.015 = load ptr, ptr %15, align 8, !tbaa !61
  %.not1316 = icmp eq ptr %.015, null
  br i1 %.not1316, label %.loopexit, label %.lr.ph

.lr.ph:                                           ; preds = %14, %17
  %.017 = phi ptr [ %.0, %17 ], [ %.015, %14 ]
  %.not14 = icmp eq ptr %.017, %1
  br i1 %.not14, label %17, label %16

16:                                               ; preds = %.lr.ph
  tail call void @ossl_quic_channel_raise_net_error(ptr noundef nonnull %.017) #11
  br label %17

17:                                               ; preds = %.lr.ph, %16
  %18 = getelementptr i8, ptr %.017, i64 8
  %.0 = load ptr, ptr %18, align 8, !tbaa !61
  %.not13 = icmp eq ptr %.0, null
  br i1 %.not13, label %.loopexit, label %.lr.ph, !llvm.loop !196

.loopexit:                                        ; preds = %17, %14, %2
  ret void
}